target datalayout = "e-m:e-p270:32:32-p271:32:32-p272:64:64-i64:64-i128:128-f80:128-n8:16:32:64-S128"
target triple = "x86_64-pc-linux-gnu"

%struct.X509_pubkey_st = type { ptr, ptr, ptr, ptr, ptr, i8 }
%struct.evp_pkey_st = type { i32, i32, ptr, ptr, ptr, %union.legacy_pkey_st, %union.legacy_pkey_st, %struct.CRYPTO_REF_COUNT, ptr, ptr, i32, i8, %struct.crypto_ex_data_st, ptr, ptr, i64, ptr, i64, %struct.anon }
%union.legacy_pkey_st = type { ptr }
%struct.CRYPTO_REF_COUNT = type { i32 }
%struct.crypto_ex_data_st = type { ptr, ptr }
%struct.anon = type { i32, i32, i32 }
%struct.evp_pkey_asn1_method_st = type { i32, i32, i64, ptr, ptr, ptr, ptr, ptr, ptr, ptr, ptr, ptr, ptr, ptr, ptr, ptr, ptr, ptr, ptr, ptr, ptr, ptr, ptr, ptr, ptr, ptr, ptr, ptr, ptr, ptr, ptr, ptr, ptr, ptr, ptr, ptr, ptr, ptr, ptr, ptr, ptr }

@.str = private unnamed_addr constant [34 x i8] c"../openssl/crypto/x509/x_pubkey.c\00", align 1
@X509_PUBKEY_it.local_it = internal constant { i8, [7 x i8], i64, ptr, i64, ptr, i64, ptr } { i8 4, [7 x i8] zeroinitializer, i64 16, ptr null, i64 0, ptr @x509_pubkey_ff, i64 0, ptr @.str.1 }, align 8
@__func__.X509_PUBKEY_set = private unnamed_addr constant [16 x i8] c"X509_PUBKEY_set\00", align 1
@.str.2 = private unnamed_addr constant [4 x i8] c"DER\00", align 1
@.str.3 = private unnamed_addr constant [21 x i8] c"SubjectPublicKeyInfo\00", align 1

; Function Attrs: nounwind uwtable
define ptr @X509_PUBKEY_it() #0 {
  ret ptr @X509_PUBKEY_it.local_it
}

; Function Attrs: nounwind uwtable
define void @X509_PUBKEY_free(ptr noundef %0) #0 {
  %2 = alloca ptr, align 8
  store ptr %0, ptr %2, align 8, !tbaa !14
  %3 = load ptr, ptr %2, align 8, !tbaa !14
  %4 = call ptr @X509_PUBKEY_it()
  call void @ASN1_item_free(ptr noundef %3, ptr noundef %4)
  ret void
}

; Function Attrs: nounwind uwtable
define ptr @d2i_X509_PUBKEY(ptr noundef %0, ptr noundef %1, i64 noundef %2) #0 {
  %4 = alloca ptr, align 8
  %5 = alloca ptr, align 8
  %6 = alloca i64, align 8
  store ptr %0, ptr %4, align 8, !tbaa !16
  store ptr %1, ptr %5, align 8, !tbaa !3
  store i64 %2, ptr %6, align 8, !tbaa !8
  %7 = load ptr, ptr %4, align 8, !tbaa !16
  %8 = load ptr, ptr %5, align 8, !tbaa !3
  %9 = load i64, ptr %6, align 8, !tbaa !8
  %10 = call ptr @X509_PUBKEY_it()
  %11 = call ptr @ASN1_item_d2i(ptr noundef %7, ptr noundef %8, i64 noundef %9, ptr noundef %10)
  ret ptr %11
}

; Function Attrs: nounwind uwtable
define ptr @X509_PUBKEY_new() #0 {
  %1 = call ptr @X509_PUBKEY_it()
  %2 = call ptr @ASN1_item_new(ptr noundef %1)
  ret ptr %2
}

; Function Attrs: nounwind uwtable
define i32 @X509_PUBKEY_set(ptr noundef %0, ptr noundef %1) #0 {
  %3 = alloca i32, align 4
  %4 = alloca ptr, align 8
  %5 = alloca ptr, align 8
  %6 = alloca ptr, align 8
  %7 = alloca i32, align 4
  %8 = alloca ptr, align 8
  %9 = alloca i64, align 8
  %10 = alloca ptr, align 8
  %11 = alloca ptr, align 8
  store ptr %0, ptr %4, align 8, !tbaa !16
  store ptr %1, ptr %5, align 8, !tbaa !46
  call void @llvm.lifetime.start.p0(i64 8, ptr %6) #5
  store ptr null, ptr %6, align 8, !tbaa !14
  %12 = load ptr, ptr %4, align 8, !tbaa !16
  %13 = icmp eq ptr %12, null
  br i1 %13, label %17, label %14

14:                                               ; preds = %2
  %15 = load ptr, ptr %5, align 8, !tbaa !46
  %16 = icmp eq ptr %15, null
  br i1 %16, label %17, label %18

17:                                               ; preds = %14, %2
  call void @ERR_new()
  call void @ERR_set_debug(ptr noundef @.str, i32 noundef 328, ptr noundef @__func__.X509_PUBKEY_set)
  call void (i32, i32, ptr, ...) @ERR_set_error(i32 noundef 11, i32 noundef 786690, ptr noundef null)
  store i32 0, ptr %3, align 4
  store i32 1, ptr %7, align 4
  br label %95

18:                                               ; preds = %14
  %19 = load ptr, ptr %5, align 8, !tbaa !46
  %20 = getelementptr inbounds nuw %struct.evp_pkey_st, ptr %19, i32 0, i32 2
  %21 = load ptr, ptr %20, align 8, !tbaa !47
  %22 = icmp ne ptr %21, null
  br i1 %22, label %23, label %48

23:                                               ; preds = %18
  %24 = call ptr @X509_PUBKEY_new()
  store ptr %24, ptr %6, align 8, !tbaa !14
  %25 = icmp eq ptr %24, null
  br i1 %25, label %26, label %27

26:                                               ; preds = %23
  call void @ERR_new()
  call void @ERR_set_debug(ptr noundef @.str, i32 noundef 334, ptr noundef @__func__.X509_PUBKEY_set)
  call void (i32, i32, ptr, ...) @ERR_set_error(i32 noundef 11, i32 noundef 524301, ptr noundef null)
  br label %93

27:                                               ; preds = %23
  %28 = load ptr, ptr %5, align 8, !tbaa !46
  %29 = getelementptr inbounds nuw %struct.evp_pkey_st, ptr %28, i32 0, i32 2
  %30 = load ptr, ptr %29, align 8, !tbaa !47
  %31 = getelementptr inbounds nuw %struct.evp_pkey_asn1_method_st, ptr %30, i32 0, i32 6
  %32 = load ptr, ptr %31, align 8, !tbaa !59
  %33 = icmp ne ptr %32, null
  br i1 %33, label %34, label %46

34:                                               ; preds = %27
  %35 = load ptr, ptr %5, align 8, !tbaa !46
  %36 = getelementptr inbounds nuw %struct.evp_pkey_st, ptr %35, i32 0, i32 2
  %37 = load ptr, ptr %36, align 8, !tbaa !47
  %38 = getelementptr inbounds nuw %struct.evp_pkey_asn1_method_st, ptr %37, i32 0, i32 6
  %39 = load ptr, ptr %38, align 8, !tbaa !59
  %40 = load ptr, ptr %6, align 8, !tbaa !14
  %41 = load ptr, ptr %5, align 8, !tbaa !46
  %42 = call i32 %39(ptr noundef %40, ptr noundef %41)
  %43 = icmp ne i32 %42, 0
  br i1 %43, label %45, label %44

44:                                               ; preds = %34
  call void @ERR_new()
  call void @ERR_set_debug(ptr noundef @.str, i32 noundef 339, ptr noundef @__func__.X509_PUBKEY_set)
  call void (i32, i32, ptr, ...) @ERR_set_error(i32 noundef 11, i32 noundef 126, ptr noundef null)
  br label %93

45:                                               ; preds = %34
  br label %47

46:                                               ; preds = %27
  call void @ERR_new()
  call void @ERR_set_debug(ptr noundef @.str, i32 noundef 343, ptr noundef @__func__.X509_PUBKEY_set)
  call void (i32, i32, ptr, ...) @ERR_set_error(i32 noundef 11, i32 noundef 124, ptr noundef null)
  br label %93

47:                                               ; preds = %45
  br label %67

48:                                               ; preds = %18
  %49 = load ptr, ptr %5, align 8, !tbaa !46
  %50 = getelementptr inbounds nuw %struct.evp_pkey_st, ptr %49, i32 0, i32 13
  %51 = load ptr, ptr %50, align 8, !tbaa !60
  %52 = icmp ne ptr %51, null
  br i1 %52, label %53, label %66

53:                                               ; preds = %48
  call void @llvm.lifetime.start.p0(i64 8, ptr %8) #5
  store ptr null, ptr %8, align 8, !tbaa !12
  call void @llvm.lifetime.start.p0(i64 8, ptr %9) #5
  store i64 0, ptr %9, align 8, !tbaa !8
  call void @llvm.lifetime.start.p0(i64 8, ptr %10) #5
  %54 = load ptr, ptr %5, align 8, !tbaa !46
  %55 = call ptr @OSSL_ENCODER_CTX_new_for_pkey(ptr noundef %54, i32 noundef 134, ptr noundef @.str.2, ptr noundef @.str.3, ptr noundef null)
  store ptr %55, ptr %10, align 8, !tbaa !61
  %56 = load ptr, ptr %10, align 8, !tbaa !61
  %57 = call i32 @OSSL_ENCODER_to_data(ptr noundef %56, ptr noundef %8, ptr noundef %9)
  %58 = icmp ne i32 %57, 0
  br i1 %58, label %59, label %63

59:                                               ; preds = %53
  call void @llvm.lifetime.start.p0(i64 8, ptr %11) #5
  %60 = load ptr, ptr %8, align 8, !tbaa !12
  store ptr %60, ptr %11, align 8, !tbaa !12
  %61 = load i64, ptr %9, align 8, !tbaa !8
  %62 = call ptr @d2i_X509_PUBKEY(ptr noundef null, ptr noundef %11, i64 noundef %61)
  store ptr %62, ptr %6, align 8, !tbaa !14
  call void @llvm.lifetime.end.p0(i64 8, ptr %11) #5
  br label %63

63:                                               ; preds = %59, %53
  %64 = load ptr, ptr %10, align 8, !tbaa !61
  call void @OSSL_ENCODER_CTX_free(ptr noundef %64)
  %65 = load ptr, ptr %8, align 8, !tbaa !12
  call void @CRYPTO_free(ptr noundef %65, ptr noundef @.str, i32 noundef 361)
  call void @llvm.lifetime.end.p0(i64 8, ptr %10) #5
  call void @llvm.lifetime.end.p0(i64 8, ptr %9) #5
  call void @llvm.lifetime.end.p0(i64 8, ptr %8) #5
  br label %66

66:                                               ; preds = %63, %48
  br label %67

67:                                               ; preds = %66, %47
  %68 = load ptr, ptr %6, align 8, !tbaa !14
  %69 = icmp eq ptr %68, null
  br i1 %69, label %70, label %71

70:                                               ; preds = %67
  call void @ERR_new()
  call void @ERR_set_debug(ptr noundef @.str, i32 noundef 365, ptr noundef @__func__.X509_PUBKEY_set)
  call void (i32, i32, ptr, ...) @ERR_set_error(i32 noundef 11, i32 noundef 111, ptr noundef null)
  br label %93

71:                                               ; preds = %67
  %72 = load ptr, ptr %4, align 8, !tbaa !16
  %73 = load ptr, ptr %72, align 8, !tbaa !14
  call void @X509_PUBKEY_free(ptr noundef %73)
  %74 = load ptr, ptr %5, align 8, !tbaa !46
  %75 = call i32 @EVP_PKEY_up_ref(ptr noundef %74)
  %76 = icmp ne i32 %75, 0
  br i1 %76, label %78, label %77

77:                                               ; preds = %71
  call void @ERR_new()
  call void @ERR_set_debug(ptr noundef @.str, i32 noundef 371, ptr noundef @__func__.X509_PUBKEY_set)
  call void (i32, i32, ptr, ...) @ERR_set_error(i32 noundef 11, i32 noundef 786691, ptr noundef null)
  br label %93

78:                                               ; preds = %71
  %79 = load ptr, ptr %6, align 8, !tbaa !14
  %80 = load ptr, ptr %4, align 8, !tbaa !16
  store ptr %79, ptr %80, align 8, !tbaa !14
  %81 = load ptr, ptr %6, align 8, !tbaa !14
  %82 = getelementptr inbounds nuw %struct.X509_pubkey_st, ptr %81, i32 0, i32 2
  %83 = load ptr, ptr %82, align 8, !tbaa !30
  %84 = icmp ne ptr %83, null
  br i1 %84, label %85, label %89

85:                                               ; preds = %78
  %86 = load ptr, ptr %6, align 8, !tbaa !14
  %87 = getelementptr inbounds nuw %struct.X509_pubkey_st, ptr %86, i32 0, i32 2
  %88 = load ptr, ptr %87, align 8, !tbaa !30
  call void @EVP_PKEY_free(ptr noundef %88)
  br label %89

89:                                               ; preds = %85, %78
  %90 = load ptr, ptr %5, align 8, !tbaa !46
  %91 = load ptr, ptr %6, align 8, !tbaa !14
  %92 = getelementptr inbounds nuw %struct.X509_pubkey_st, ptr %91, i32 0, i32 2
  store ptr %90, ptr %92, align 8, !tbaa !30
  store i32 1, ptr %3, align 4
  store i32 1, ptr %7, align 4
  br label %95

93:                                               ; preds = %77, %70, %46, %44, %26
  %94 = load ptr, ptr %6, align 8, !tbaa !14
  call void @X509_PUBKEY_free(ptr noundef %94)
  store i32 0, ptr %3, align 4
  store i32 1, ptr %7, align 4
  br label %95

95:                                               ; preds = %93, %89, %17
  call void @llvm.lifetime.end.p0(i64 8, ptr %6) #5
  %96 = load i32, ptr %3, align 4
  ret i32 %96
}