; Function Attrs: nounwind uwtable
define range(i32 0, 2) i32 @X509_PUBKEY_set(ptr noundef captures(address_is_null) %0, ptr noundef %1) local_unnamed_addr #0 {
  %3 = alloca ptr, align 8
  %4 = alloca i64, align 8
  %5 = alloca ptr, align 8
  %6 = icmp eq ptr %0, null
  %7 = icmp eq ptr %1, null
  %or.cond = or i1 %6, %7
  br i1 %or.cond, label %8, label %9

8:                                                ; preds = %2
  tail call void @ERR_new() #9
  tail call void @ERR_set_debug(ptr noundef nonnull @.str, i32 noundef 328, ptr noundef nonnull @__func__.X509_PUBKEY_set) #9
  tail call void (i32, i32, ptr, ...) @ERR_set_error(i32 noundef 11, i32 noundef 786690, ptr noundef null) #9
  br label %46

9:                                                ; preds = %2
  %10 = getelementptr inbounds nuw i8, ptr %1, i64 8
  %11 = load ptr, ptr %10, align 8, !tbaa !30
  %.not = icmp eq ptr %11, null
  br i1 %.not, label %24, label %12

12:                                               ; preds = %9
  %13 = tail call ptr @ASN1_item_new(ptr noundef nonnull @X509_PUBKEY_it.local_it) #9
  %14 = icmp eq ptr %13, null
  br i1 %14, label %15, label %16

15:                                               ; preds = %12
  tail call void @ERR_new() #9
  tail call void @ERR_set_debug(ptr noundef nonnull @.str, i32 noundef 334, ptr noundef nonnull @__func__.X509_PUBKEY_set) #9
  tail call void (i32, i32, ptr, ...) @ERR_set_error(i32 noundef 11, i32 noundef 524301, ptr noundef null) #9
  br label %45

16:                                               ; preds = %12
  %17 = load ptr, ptr %10, align 8, !tbaa !30
  %18 = getelementptr inbounds nuw i8, ptr %17, i64 40
  %19 = load ptr, ptr %18, align 8, !tbaa !44
  %.not31 = icmp eq ptr %19, null
  br i1 %.not31, label %23, label %20

20:                                               ; preds = %16
  %21 = tail call i32 %19(ptr noundef nonnull %13, ptr noundef nonnull %1) #9
  %.not32 = icmp eq i32 %21, 0
  br i1 %.not32, label %22, label %.thread36

22:                                               ; preds = %20
  tail call void @ERR_new() #9
  tail call void @ERR_set_debug(ptr noundef nonnull @.str, i32 noundef 339, ptr noundef nonnull @__func__.X509_PUBKEY_set) #9
  tail call void (i32, i32, ptr, ...) @ERR_set_error(i32 noundef 11, i32 noundef 126, ptr noundef null) #9
  br label %45

23:                                               ; preds = %16
  tail call void @ERR_new() #9
  tail call void @ERR_set_debug(ptr noundef nonnull @.str, i32 noundef 343, ptr noundef nonnull @__func__.X509_PUBKEY_set) #9
  tail call void (i32, i32, ptr, ...) @ERR_set_error(i32 noundef 11, i32 noundef 124, ptr noundef null) #9
  br label %45

24:                                               ; preds = %9
  %25 = getelementptr inbounds nuw i8, ptr %1, i64 96
  %26 = load ptr, ptr %25, align 8, !tbaa !45
  %.not29 = icmp eq ptr %26, null
  br i1 %.not29, label %.thread, label %27

27:                                               ; preds = %24
  call void @llvm.lifetime.start.p0(i64 8, ptr nonnull %3) #9
  store ptr null, ptr %3, align 8, !tbaa !46
  call void @llvm.lifetime.start.p0(i64 8, ptr nonnull %4) #9
  store i64 0, ptr %4, align 8, !tbaa !47
  %28 = tail call ptr @OSSL_ENCODER_CTX_new_for_pkey(ptr noundef nonnull %1, i32 noundef 134, ptr noundef nonnull @.str.2, ptr noundef nonnull @.str.3, ptr noundef null) #9
  %29 = call i32 @OSSL_ENCODER_to_data(ptr noundef %28, ptr noundef nonnull %3, ptr noundef nonnull %4) #9
  %.not30 = icmp eq i32 %29, 0
  br i1 %.not30, label %34, label %30

30:                                               ; preds = %27
  call void @llvm.lifetime.start.p0(i64 8, ptr nonnull %5) #9
  %31 = load ptr, ptr %3, align 8, !tbaa !46
  store ptr %31, ptr %5, align 8, !tbaa !46
  %32 = load i64, ptr %4, align 8, !tbaa !47
  %33 = call ptr @ASN1_item_d2i(ptr noundef null, ptr noundef nonnull %5, i64 noundef %32, ptr noundef nonnull @X509_PUBKEY_it.local_it) #9
  call void @llvm.lifetime.end.p0(i64 8, ptr nonnull %5) #9
  br label %34

34:                                               ; preds = %27, %30
  %.2 = phi ptr [ %33, %30 ], [ null, %27 ]
  call void @OSSL_ENCODER_CTX_free(ptr noundef %28) #9
  %35 = load ptr, ptr %3, align 8, !tbaa !46
  call void @CRYPTO_free(ptr noundef %35, ptr noundef nonnull @.str, i32 noundef 361) #9
  call void @llvm.lifetime.end.p0(i64 8, ptr nonnull %4) #9
  call void @llvm.lifetime.end.p0(i64 8, ptr nonnull %3) #9
  %36 = icmp eq ptr %.2, null
  br i1 %36, label %.thread, label %.thread36

.thread:                                          ; preds = %24, %34
  call void @ERR_new() #9
  call void @ERR_set_debug(ptr noundef nonnull @.str, i32 noundef 365, ptr noundef nonnull @__func__.X509_PUBKEY_set) #9
  call void (i32, i32, ptr, ...) @ERR_set_error(i32 noundef 11, i32 noundef 111, ptr noundef null) #9
  br label %45

.thread36:                                        ; preds = %20, %34
  %.138 = phi ptr [ %.2, %34 ], [ %13, %20 ]
  %37 = load ptr, ptr %0, align 8, !tbaa !3
  call void @ASN1_item_free(ptr noundef %37, ptr noundef nonnull @X509_PUBKEY_it.local_it) #9
  %38 = call i32 @EVP_PKEY_up_ref(ptr noundef nonnull %1) #9
  %.not33 = icmp eq i32 %38, 0
  br i1 %.not33, label %39, label %40

39:                                               ; preds = %.thread36
  call void @ERR_new() #9
  call void @ERR_set_debug(ptr noundef nonnull @.str, i32 noundef 371, ptr noundef nonnull @__func__.X509_PUBKEY_set) #9
  call void (i32, i32, ptr, ...) @ERR_set_error(i32 noundef 11, i32 noundef 786691, ptr noundef null) #9
  br label %45

40:                                               ; preds = %.thread36
  store ptr %.138, ptr %0, align 8, !tbaa !3
  %41 = getelementptr inbounds nuw i8, ptr %.138, i64 16
  %42 = load ptr, ptr %41, align 8, !tbaa !19
  %.not34 = icmp eq ptr %42, null
  br i1 %.not34, label %44, label %43

43:                                               ; preds = %40
  call void @EVP_PKEY_free(ptr noundef nonnull %42) #9
  br label %44

44:                                               ; preds = %43, %40
  store ptr %1, ptr %41, align 8, !tbaa !19
  br label %46

45:                                               ; preds = %39, %.thread, %23, %22, %15
  %.022 = phi ptr [ null, %15 ], [ null, %.thread ], [ %.138, %39 ], [ %13, %22 ], [ %13, %23 ]
  call void @ASN1_item_free(ptr noundef %.022, ptr noundef nonnull @X509_PUBKEY_it.local_it) #9
  br label %46

46:                                               ; preds = %45, %44, %8
  %.0 = phi i32 [ 0, %8 ], [ 0, %45 ], [ 1, %44 ]
  ret i32 %.0
}